; Function Attrs: mustprogress nounwind uwtable
define hidden noundef ptr @_ZNK15ciInstanceKlass21transitive_interfacesEv(ptr noundef nonnull align 8 dereferenceable(144) %0) local_unnamed_addr #0 align 2 {
  %2 = getelementptr inbounds i8, ptr %0, i64 136
  %3 = load ptr, ptr %2, align 8
  %4 = icmp eq ptr %3, null
  br i1 %4, label %5, label %6

5:                                                ; preds = %1
  tail call void @_ZN15ciInstanceKlass29compute_transitive_interfacesEv(ptr noundef nonnull align 8 dereferenceable(144) %0)
  %.pre = load ptr, ptr %2, align 8
  br label %6

6:                                                ; preds = %5, %1
  %7 = phi ptr [ %.pre, %5 ], [ %3, %1 ]
  ret ptr %7
}